; Function Attrs: nounwind ssp uwtable
define dso_local range(i32 -1, 1) i32 @crypto_core_ed25519_from_string_ro(ptr noundef nonnull %0, ptr noundef %1, ptr noundef %2, i64 noundef %3, i32 noundef %4) local_unnamed_addr #0 {
  %6 = alloca %struct.ge25519_p3, align 8
  %7 = alloca %struct.ge25519_p3, align 8
  %8 = alloca %struct.ge25519_p3, align 8
  %9 = alloca [64 x i8], align 16
  %10 = alloca [96 x i8], align 16
  %11 = alloca [64 x i8], align 16
  call void @llvm.lifetime.start.p0(i64 64, ptr nonnull %11) #6
  call void @llvm.lifetime.start.p0(i64 64, ptr nonnull %9) #6
  call void @llvm.lifetime.start.p0(i64 96, ptr nonnull %10) #6
  %12 = call i32 @_sodium_core_h2c_string_to_hash(ptr noundef nonnull %10, i64 noundef 96, ptr noundef %1, ptr noundef %2, i64 noundef %3, i32 noundef %4) #6
  %.not.i = icmp eq i32 %12, 0
  br i1 %.not.i, label %.preheader.preheader.i, label %_string_to_points.exit

.preheader.preheader.i:                           ; preds = %5
  %13 = getelementptr inbounds nuw i8, ptr %9, i64 48
  br label %.preheader.i

.preheader.i:                                     ; preds = %22, %.preheader.preheader.i
  %.01823.i = phi i64 [ %25, %22 ], [ 0, %.preheader.preheader.i ]
  %14 = mul nuw nsw i64 %.01823.i, 48
  %15 = add nuw nsw i64 %14, 47
  br label %16

16:                                               ; preds = %16, %.preheader.i
  %.022.i = phi i64 [ 0, %.preheader.i ], [ %21, %16 ]
  %17 = sub nuw nsw i64 %15, %.022.i
  %18 = getelementptr [96 x i8], ptr %10, i64 0, i64 %17
  %19 = load i8, ptr %18, align 1
  %20 = getelementptr [64 x i8], ptr %9, i64 0, i64 %.022.i
  store i8 %19, ptr %20, align 1
  %21 = add nuw nsw i64 %.022.i, 1
  %exitcond.not.i = icmp eq i64 %21, 48
  br i1 %exitcond.not.i, label %22, label %16, !llvm.loop !4

22:                                               ; preds = %16
  call void @llvm.memset.p0.i64(ptr noundef nonnull align 16 dereferenceable(16) %13, i8 noundef 0, i64 noundef range(i64 64, 17) 16, i1 noundef false) #6
  %23 = shl nuw nsw i64 %.01823.i, 5
  %24 = getelementptr i8, ptr %11, i64 %23
  call void @_sodium_ge25519_from_hash(ptr noundef %24, ptr noundef nonnull %9) #6
  %25 = add nuw nsw i64 %.01823.i, 1
  %exitcond24.not.i = icmp eq i64 %25, 2
  br i1 %exitcond24.not.i, label %26, label %.preheader.i, !llvm.loop !6

_string_to_points.exit:                           ; preds = %5
  call void @llvm.lifetime.end.p0(i64 96, ptr nonnull %10) #6
  call void @llvm.lifetime.end.p0(i64 64, ptr nonnull %9) #6
  br label %38

26:                                               ; preds = %22
  call void @llvm.lifetime.end.p0(i64 96, ptr nonnull %10) #6
  call void @llvm.lifetime.end.p0(i64 64, ptr nonnull %9) #6
  %27 = getelementptr inbounds nuw i8, ptr %11, i64 32
  call void @llvm.lifetime.start.p0(i64 160, ptr nonnull %6) #6
  call void @llvm.lifetime.start.p0(i64 160, ptr nonnull %7) #6
  call void @llvm.lifetime.start.p0(i64 160, ptr nonnull %8) #6
  %28 = call i32 @_sodium_ge25519_frombytes(ptr noundef nonnull %6, ptr noundef nonnull %11) #6
  %.not.i5 = icmp eq i32 %28, 0
  br i1 %.not.i5, label %29, label %crypto_core_ed25519_add.exit

29:                                               ; preds = %26
  %30 = call i32 @_sodium_ge25519_is_on_curve(ptr noundef nonnull %6) #6
  %31 = icmp eq i32 %30, 0
  br i1 %31, label %crypto_core_ed25519_add.exit, label %32

32:                                               ; preds = %29
  %33 = call i32 @_sodium_ge25519_frombytes(ptr noundef nonnull %7, ptr noundef nonnull %27) #6
  %.not3.i = icmp eq i32 %33, 0
  br i1 %.not3.i, label %34, label %crypto_core_ed25519_add.exit

34:                                               ; preds = %32
  %35 = call i32 @_sodium_ge25519_is_on_curve(ptr noundef nonnull %7) #6
  %36 = icmp eq i32 %35, 0
  br i1 %36, label %crypto_core_ed25519_add.exit, label %37

37:                                               ; preds = %34
  call void @_sodium_ge25519_p3_add(ptr noundef nonnull %8, ptr noundef nonnull %6, ptr noundef nonnull %7) #6
  call void @_sodium_ge25519_p3_tobytes(ptr noundef nonnull %0, ptr noundef nonnull %8) #6
  br label %crypto_core_ed25519_add.exit

crypto_core_ed25519_add.exit:                     ; preds = %26, %29, %32, %34, %37
  %.0.i = phi i32 [ 0, %37 ], [ -1, %34 ], [ -1, %32 ], [ -1, %29 ], [ -1, %26 ]
  call void @llvm.lifetime.end.p0(i64 160, ptr nonnull %8) #6
  call void @llvm.lifetime.end.p0(i64 160, ptr nonnull %7) #6
  call void @llvm.lifetime.end.p0(i64 160, ptr nonnull %6) #6
  br label %38

38:                                               ; preds = %_string_to_points.exit, %crypto_core_ed25519_add.exit
  %.0 = phi i32 [ %.0.i, %crypto_core_ed25519_add.exit ], [ -1, %_string_to_points.exit ]
  call void @llvm.lifetime.end.p0(i64 64, ptr nonnull %11) #6
  ret i32 %.0
}